target datalayout = "e-m:e-p270:32:32-p271:32:32-p272:64:64-i64:64-i128:128-f80:128-n8:16:32:64-S128"
target triple = "x86_64-pc-linux-gnu"

%"struct.Luau::NotNull" = type { ptr }
%"struct.Luau::NotNull.5" = type { ptr }
%"struct.Luau::NotNull.6" = type { ptr }
%"struct.Luau::DataFlowGraph" = type { %"struct.Luau::NotNull.5", %"struct.Luau::NotNull.6", %"class.Luau::DenseHashMap", %"class.Luau::DenseHashMap.7", %"class.Luau::DenseHashMap.10", %"class.Luau::DenseHashMap", %"class.Luau::DenseHashMap.13" }
%"class.Luau::DenseHashMap.7" = type { %"class.Luau::detail::DenseHashTable.8" }
%"class.Luau::detail::DenseHashTable.8" = type <{ ptr, i64, i64, ptr, [8 x i8] }>
%"class.Luau::DenseHashMap.10" = type { %"class.Luau::detail::DenseHashTable.11" }
%"class.Luau::detail::DenseHashTable.11" = type <{ ptr, i64, i64, ptr, [8 x i8] }>
%"class.Luau::DenseHashMap" = type { %"class.Luau::detail::DenseHashTable" }
%"class.Luau::detail::DenseHashTable" = type <{ ptr, i64, i64, ptr, [8 x i8] }>
%"class.Luau::DenseHashMap.13" = type { %"class.Luau::detail::DenseHashTable.14" }
%"class.Luau::detail::DenseHashTable.14" = type <{ ptr, i64, i64, ptr, [8 x i8] }>
%"struct.Luau::Symbol" = type { ptr, %"struct.Luau::AstName" }
%"struct.Luau::AstName" = type { ptr }
%"struct.Luau::DataFlowGraphBuilder" = type { %"struct.Luau::DataFlowGraph", %"struct.Luau::NotNull.5", %"struct.Luau::NotNull.6", ptr, %"class.std::vector.43", %"class.std::vector.48", %"class.Luau::DenseHashMap.53" }
%"class.std::vector.43" = type { %"struct.std::_Vector_base.44" }
%"struct.std::_Vector_base.44" = type { %"struct.std::_Vector_base<std::unique_ptr<Luau::DfgScope>, std::allocator<std::unique_ptr<Luau::DfgScope>>>::_Vector_impl" }
%"struct.std::_Vector_base<std::unique_ptr<Luau::DfgScope>, std::allocator<std::unique_ptr<Luau::DfgScope>>>::_Vector_impl" = type { %"struct.std::_Vector_base<std::unique_ptr<Luau::DfgScope>, std::allocator<std::unique_ptr<Luau::DfgScope>>>::_Vector_impl_data" }
%"struct.std::_Vector_base<std::unique_ptr<Luau::DfgScope>, std::allocator<std::unique_ptr<Luau::DfgScope>>>::_Vector_impl_data" = type { ptr, ptr, ptr }
%"class.std::vector.48" = type { %"struct.std::_Vector_base.49" }
%"struct.std::_Vector_base.49" = type { %"struct.std::_Vector_base<Luau::DfgScope *, std::allocator<Luau::DfgScope *>>::_Vector_impl" }
%"struct.std::_Vector_base<Luau::DfgScope *, std::allocator<Luau::DfgScope *>>::_Vector_impl" = type { %"struct.std::_Vector_base<Luau::DfgScope *, std::allocator<Luau::DfgScope *>>::_Vector_impl_data" }
%"struct.std::_Vector_base<Luau::DfgScope *, std::allocator<Luau::DfgScope *>>::_Vector_impl_data" = type { ptr, ptr, ptr }
%"class.Luau::DenseHashMap.53" = type { %"class.Luau::detail::DenseHashTable.54" }
%"class.Luau::detail::DenseHashTable.54" = type <{ ptr, i64, i64, %"struct.Luau::Symbol", [8 x i8] }>
%"class.Luau::AstNode.base" = type <{ ptr, i32, %"struct.Luau::Location" }>
%"struct.Luau::Location" = type { %"struct.Luau::Position", %"struct.Luau::Position" }
%"struct.Luau::Position" = type { i32, i32 }
%"struct.Luau::DataFlowResult" = type { %"struct.Luau::NotNull", ptr }
%"class.Luau::AstExpr.base" = type { %"class.Luau::AstNode.base" }
%"class.Luau::AstExprGlobal" = type { %"class.Luau::AstExpr.base", %"struct.Luau::AstName" }

; Function Attrs: mustprogress nounwind uwtable
define linkonce_odr dso_local noundef ptr @_ZNK4Luau7NotNullINS_18RefinementKeyArenaEEptEv(ptr noundef nonnull align 8 dereferenceable(8) %0) #4 comdat align 2 {
  %2 = alloca ptr, align 8
  store ptr %0, ptr %2, align 8, !tbaa !244
  %3 = load ptr, ptr %2, align 8
  %4 = getelementptr inbounds nuw %"struct.Luau::NotNull.6", ptr %3, i32 0, i32 0
  %5 = load ptr, ptr %4, align 8, !tbaa !246
  ret ptr %5
}

; Function Attrs: mustprogress nounwind uwtable
define linkonce_odr dso_local void @_ZN4Luau6SymbolC2ERKNS_7AstNameE(ptr noundef nonnull align 8 dereferenceable(16) %0, ptr noundef nonnull align 8 dereferenceable(8) %1) unnamed_addr #4 comdat align 2 {
  %3 = alloca ptr, align 8
  %4 = alloca ptr, align 8
  store ptr %0, ptr %3, align 8, !tbaa !109
  store ptr %1, ptr %4, align 8, !tbaa !478
  %5 = load ptr, ptr %3, align 8
  %6 = getelementptr inbounds nuw %"struct.Luau::Symbol", ptr %5, i32 0, i32 0
  store ptr null, ptr %6, align 8, !tbaa !190
  %7 = getelementptr inbounds nuw %"struct.Luau::Symbol", ptr %5, i32 0, i32 1
  %8 = load ptr, ptr %4, align 8, !tbaa !478
  call void @llvm.memcpy.p0.p0.i64(ptr align 8 %7, ptr align 8 %8, i64 8, i1 false), !tbaa.struct !480
  ret void
}

; Function Attrs: mustprogress uwtable
define dso_local { ptr, ptr } @_ZN4Luau20DataFlowGraphBuilder9visitExprEPNS_13AstExprGlobalE(ptr noundef nonnull align 8 dereferenceable(336) %0, ptr noundef %1) #2 align 2 {
  %3 = alloca %"struct.Luau::DataFlowResult", align 8
  %4 = alloca ptr, align 8
  %5 = alloca ptr, align 8
  %6 = alloca %"struct.Luau::NotNull", align 8
  %7 = alloca %"struct.Luau::Symbol", align 8
  %8 = alloca %"struct.Luau::NotNull", align 8
  store ptr %0, ptr %4, align 8, !tbaa !154
  store ptr %1, ptr %5, align 8, !tbaa !500
  %9 = load ptr, ptr %4, align 8
  call void @llvm.lifetime.start.p0(i64 8, ptr %6) #17
  %10 = load ptr, ptr %5, align 8, !tbaa !500
  %11 = getelementptr inbounds nuw %"class.Luau::AstExprGlobal", ptr %10, i32 0, i32 1
  call void @_ZN4Luau6SymbolC2ERKNS_7AstNameE(ptr noundef nonnull align 8 dereferenceable(16) %7, ptr noundef nonnull align 8 dereferenceable(8) %11)
  %12 = getelementptr inbounds nuw { ptr, ptr }, ptr %7, i32 0, i32 0
  %13 = load ptr, ptr %12, align 8
  %14 = getelementptr inbounds nuw { ptr, ptr }, ptr %7, i32 0, i32 1
  %15 = load ptr, ptr %14, align 8
  %16 = call ptr @_ZN4Luau20DataFlowGraphBuilder6lookupENS_6SymbolE(ptr noundef nonnull align 8 dereferenceable(336) %9, ptr %13, ptr %15)
  %17 = getelementptr inbounds nuw %"struct.Luau::NotNull", ptr %6, i32 0, i32 0
  store ptr %16, ptr %17, align 8
  %18 = getelementptr inbounds nuw %"struct.Luau::DataFlowResult", ptr %3, i32 0, i32 0
  call void @llvm.memcpy.p0.p0.i64(ptr align 8 %18, ptr align 8 %6, i64 8, i1 false), !tbaa.struct !22
  %19 = getelementptr inbounds nuw %"struct.Luau::DataFlowResult", ptr %3, i32 0, i32 1
  %20 = getelementptr inbounds nuw %"struct.Luau::DataFlowGraphBuilder", ptr %9, i32 0, i32 2
  %21 = call noundef ptr @_ZNK4Luau7NotNullINS_18RefinementKeyArenaEEptEv(ptr noundef nonnull align 8 dereferenceable(8) %20) #17
  call void @llvm.memcpy.p0.p0.i64(ptr align 8 %8, ptr align 8 %6, i64 8, i1 false), !tbaa.struct !22
  %22 = getelementptr inbounds nuw %"struct.Luau::NotNull", ptr %8, i32 0, i32 0
  %23 = load ptr, ptr %22, align 8
  %24 = call noundef ptr @_ZN4Luau18RefinementKeyArena4leafENS_7NotNullIKNS_3DefEEE(ptr noundef nonnull align 8 dereferenceable(40) %21, ptr %23)
  store ptr %24, ptr %19, align 8, !tbaa !422
  call void @llvm.lifetime.end.p0(i64 8, ptr %6) #17
  %25 = load { ptr, ptr }, ptr %3, align 8
  ret { ptr, ptr } %25
}