; Function Attrs: mustprogress uwtable
define dso_local { ptr, ptr } @_ZN4Luau20DataFlowGraphBuilder9visitExprEPNS_13AstExprGlobalE(ptr noundef nonnull align 8 dereferenceable(336) %0, ptr noundef readonly captures(none) %1) local_unnamed_addr #2 align 2 {
  %3 = getelementptr inbounds nuw i8, ptr %1, i64 32
  %4 = load i64, ptr %3, align 8, !tbaa !107
  %5 = inttoptr i64 %4 to ptr
  %6 = tail call ptr @_ZN4Luau20DataFlowGraphBuilder6lookupENS_6SymbolE(ptr noundef nonnull align 8 dereferenceable(336) %0, ptr null, ptr %5)
  %7 = getelementptr inbounds nuw i8, ptr %0, i64 224
  %8 = load ptr, ptr %7, align 8, !tbaa !191
  %9 = tail call noundef ptr @_ZN4Luau18RefinementKeyArena4leafENS_7NotNullIKNS_3DefEEE(ptr noundef nonnull align 8 dereferenceable(40) %8, ptr %6)
  %.fca.0.insert = insertvalue { ptr, ptr } poison, ptr %6, 0
  %.fca.1.insert = insertvalue { ptr, ptr } %.fca.0.insert, ptr %9, 1
  ret { ptr, ptr } %.fca.1.insert
}